target datalayout = "e-m:e-p270:32:32-p271:32:32-p272:64:64-i64:64-i128:128-f80:128-n8:16:32:64-S128"
target triple = "x86_64-pc-linux-gnu"

%struct.ossl_param_st = type { ptr, i32, ptr, i64, i64 }
%struct.object_st = type { i32, double, ptr, ptr, i64, [256 x i8], i64, ptr, i64 }

@.str.3 = private unnamed_addr constant [30 x i8] c"../openssl/test/params_test.c\00", align 1
@.str.9 = private unnamed_addr constant [3 x i8] c"p1\00", align 1
@.str.10 = private unnamed_addr constant [3 x i8] c"p2\00", align 1
@.str.11 = private unnamed_addr constant [3 x i8] c"p3\00", align 1
@.str.13 = private unnamed_addr constant [3 x i8] c"p4\00", align 1
@.str.15 = private unnamed_addr constant [3 x i8] c"p5\00", align 1
@.str.18 = private unnamed_addr constant [3 x i8] c"p6\00", align 1
@.str.19 = private unnamed_addr constant [18 x i8] c"params->data_size\00", align 1
@.str.20 = private unnamed_addr constant [20 x i8] c"params->return_size\00", align 1

; Function Attrs: nounwind uwtable
define internal i32 @raw_get_params(ptr noundef %0, ptr noundef %1) #0 {
  %3 = alloca i32, align 4
  %4 = alloca ptr, align 8
  %5 = alloca ptr, align 8
  %6 = alloca ptr, align 8
  %7 = alloca i32, align 4
  store ptr %0, ptr %4, align 8, !tbaa !24
  store ptr %1, ptr %5, align 8, !tbaa !20
  call void @llvm.lifetime.start.p0(i64 8, ptr %6) #7
  %8 = load ptr, ptr %4, align 8, !tbaa !24
  store ptr %8, ptr %6, align 8, !tbaa !35
  br label %9

9:                                                ; preds = %166, %2
  %10 = load ptr, ptr %5, align 8, !tbaa !20
  %11 = getelementptr inbounds nuw %struct.ossl_param_st, ptr %10, i32 0, i32 0
  %12 = load ptr, ptr %11, align 8, !tbaa !43
  %13 = icmp ne ptr %12, null
  br i1 %13, label %14, label %169

14:                                               ; preds = %9
  %15 = load ptr, ptr %5, align 8, !tbaa !20
  %16 = getelementptr inbounds nuw %struct.ossl_param_st, ptr %15, i32 0, i32 0
  %17 = load ptr, ptr %16, align 8, !tbaa !43
  %18 = call i32 @strcmp(ptr noundef %17, ptr noundef @.str.9) #8
  %19 = icmp eq i32 %18, 0
  br i1 %19, label %20, label %29

20:                                               ; preds = %14
  %21 = load ptr, ptr %5, align 8, !tbaa !20
  %22 = getelementptr inbounds nuw %struct.ossl_param_st, ptr %21, i32 0, i32 4
  store i64 4, ptr %22, align 8, !tbaa !29
  %23 = load ptr, ptr %6, align 8, !tbaa !35
  %24 = getelementptr inbounds nuw %struct.object_st, ptr %23, i32 0, i32 0
  %25 = load i32, ptr %24, align 8, !tbaa !37
  %26 = load ptr, ptr %5, align 8, !tbaa !20
  %27 = getelementptr inbounds nuw %struct.ossl_param_st, ptr %26, i32 0, i32 2
  %28 = load ptr, ptr %27, align 8, !tbaa !44
  store i32 %25, ptr %28, align 4, !tbaa !4
  br label %165

29:                                               ; preds = %14
  %30 = load ptr, ptr %5, align 8, !tbaa !20
  %31 = getelementptr inbounds nuw %struct.ossl_param_st, ptr %30, i32 0, i32 0
  %32 = load ptr, ptr %31, align 8, !tbaa !43
  %33 = call i32 @strcmp(ptr noundef %32, ptr noundef @.str.10) #8
  %34 = icmp eq i32 %33, 0
  br i1 %34, label %35, label %44

35:                                               ; preds = %29
  %36 = load ptr, ptr %5, align 8, !tbaa !20
  %37 = getelementptr inbounds nuw %struct.ossl_param_st, ptr %36, i32 0, i32 4
  store i64 8, ptr %37, align 8, !tbaa !29
  %38 = load ptr, ptr %6, align 8, !tbaa !35
  %39 = getelementptr inbounds nuw %struct.object_st, ptr %38, i32 0, i32 1
  %40 = load double, ptr %39, align 8, !tbaa !39
  %41 = load ptr, ptr %5, align 8, !tbaa !20
  %42 = getelementptr inbounds nuw %struct.ossl_param_st, ptr %41, i32 0, i32 2
  %43 = load ptr, ptr %42, align 8, !tbaa !44
  store double %40, ptr %43, align 8, !tbaa !27
  br label %164

44:                                               ; preds = %29
  %45 = load ptr, ptr %5, align 8, !tbaa !20
  %46 = getelementptr inbounds nuw %struct.ossl_param_st, ptr %45, i32 0, i32 0
  %47 = load ptr, ptr %46, align 8, !tbaa !43
  %48 = call i32 @strcmp(ptr noundef %47, ptr noundef @.str.11) #8
  %49 = icmp eq i32 %48, 0
  br i1 %49, label %50, label %81

50:                                               ; preds = %44
  %51 = load ptr, ptr %6, align 8, !tbaa !35
  %52 = getelementptr inbounds nuw %struct.object_st, ptr %51, i32 0, i32 2
  %53 = load ptr, ptr %52, align 8, !tbaa !40
  %54 = call i32 @BN_num_bits(ptr noundef %53)
  %55 = add nsw i32 %54, 7
  %56 = sdiv i32 %55, 8
  %57 = sext i32 %56 to i64
  %58 = load ptr, ptr %5, align 8, !tbaa !20
  %59 = getelementptr inbounds nuw %struct.ossl_param_st, ptr %58, i32 0, i32 4
  store i64 %57, ptr %59, align 8, !tbaa !29
  %60 = load ptr, ptr %5, align 8, !tbaa !20
  %61 = getelementptr inbounds nuw %struct.ossl_param_st, ptr %60, i32 0, i32 3
  %62 = load i64, ptr %61, align 8, !tbaa !45
  %63 = load ptr, ptr %5, align 8, !tbaa !20
  %64 = getelementptr inbounds nuw %struct.ossl_param_st, ptr %63, i32 0, i32 4
  %65 = load i64, ptr %64, align 8, !tbaa !29
  %66 = call i32 @test_size_t_ge(ptr noundef @.str.3, i32 noundef 184, ptr noundef @.str.19, ptr noundef @.str.20, i64 noundef %62, i64 noundef %65)
  %67 = icmp ne i32 %66, 0
  br i1 %67, label %69, label %68

68:                                               ; preds = %50
  store i32 0, ptr %3, align 4
  store i32 1, ptr %7, align 4
  br label %170

69:                                               ; preds = %50
  %70 = load ptr, ptr %6, align 8, !tbaa !35
  %71 = getelementptr inbounds nuw %struct.object_st, ptr %70, i32 0, i32 2
  %72 = load ptr, ptr %71, align 8, !tbaa !40
  %73 = load ptr, ptr %5, align 8, !tbaa !20
  %74 = getelementptr inbounds nuw %struct.ossl_param_st, ptr %73, i32 0, i32 2
  %75 = load ptr, ptr %74, align 8, !tbaa !44
  %76 = load ptr, ptr %5, align 8, !tbaa !20
  %77 = getelementptr inbounds nuw %struct.ossl_param_st, ptr %76, i32 0, i32 4
  %78 = load i64, ptr %77, align 8, !tbaa !29
  %79 = trunc i64 %78 to i32
  %80 = call i32 @BN_bn2nativepad(ptr noundef %72, ptr noundef %75, i32 noundef %79)
  br label %163

81:                                               ; preds = %44
  %82 = load ptr, ptr %5, align 8, !tbaa !20
  %83 = getelementptr inbounds nuw %struct.ossl_param_st, ptr %82, i32 0, i32 0
  %84 = load ptr, ptr %83, align 8, !tbaa !43
  %85 = call i32 @strcmp(ptr noundef %84, ptr noundef @.str.13) #8
  %86 = icmp eq i32 %85, 0
  br i1 %86, label %87, label %111

87:                                               ; preds = %81
  %88 = load ptr, ptr %6, align 8, !tbaa !35
  %89 = getelementptr inbounds nuw %struct.object_st, ptr %88, i32 0, i32 3
  %90 = load ptr, ptr %89, align 8, !tbaa !41
  %91 = call i64 @strlen(ptr noundef %90) #8
  %92 = load ptr, ptr %5, align 8, !tbaa !20
  %93 = getelementptr inbounds nuw %struct.ossl_param_st, ptr %92, i32 0, i32 4
  store i64 %91, ptr %93, align 8, !tbaa !29
  %94 = load ptr, ptr %5, align 8, !tbaa !20
  %95 = getelementptr inbounds nuw %struct.ossl_param_st, ptr %94, i32 0, i32 3
  %96 = load i64, ptr %95, align 8, !tbaa !45
  %97 = load ptr, ptr %5, align 8, !tbaa !20
  %98 = getelementptr inbounds nuw %struct.ossl_param_st, ptr %97, i32 0, i32 4
  %99 = load i64, ptr %98, align 8, !tbaa !29
  %100 = call i32 @test_size_t_gt(ptr noundef @.str.3, i32 noundef 189, ptr noundef @.str.19, ptr noundef @.str.20, i64 noundef %96, i64 noundef %99)
  %101 = icmp ne i32 %100, 0
  br i1 %101, label %103, label %102

102:                                              ; preds = %87
  store i32 0, ptr %3, align 4
  store i32 1, ptr %7, align 4
  br label %170

103:                                              ; preds = %87
  %104 = load ptr, ptr %5, align 8, !tbaa !20
  %105 = getelementptr inbounds nuw %struct.ossl_param_st, ptr %104, i32 0, i32 2
  %106 = load ptr, ptr %105, align 8, !tbaa !44
  %107 = load ptr, ptr %6, align 8, !tbaa !35
  %108 = getelementptr inbounds nuw %struct.object_st, ptr %107, i32 0, i32 3
  %109 = load ptr, ptr %108, align 8, !tbaa !41
  %110 = call ptr @strcpy(ptr noundef %106, ptr noundef %109) #7
  br label %162

111:                                              ; preds = %81
  %112 = load ptr, ptr %5, align 8, !tbaa !20
  %113 = getelementptr inbounds nuw %struct.ossl_param_st, ptr %112, i32 0, i32 0
  %114 = load ptr, ptr %113, align 8, !tbaa !43
  %115 = call i32 @strcmp(ptr noundef %114, ptr noundef @.str.15) #8
  %116 = icmp eq i32 %115, 0
  br i1 %116, label %117, label %141

117:                                              ; preds = %111
  %118 = load ptr, ptr %6, align 8, !tbaa !35
  %119 = getelementptr inbounds nuw %struct.object_st, ptr %118, i32 0, i32 5
  %120 = getelementptr inbounds [256 x i8], ptr %119, i64 0, i64 0
  %121 = call i64 @strlen(ptr noundef %120) #8
  %122 = load ptr, ptr %5, align 8, !tbaa !20
  %123 = getelementptr inbounds nuw %struct.ossl_param_st, ptr %122, i32 0, i32 4
  store i64 %121, ptr %123, align 8, !tbaa !29
  %124 = load ptr, ptr %5, align 8, !tbaa !20
  %125 = getelementptr inbounds nuw %struct.ossl_param_st, ptr %124, i32 0, i32 3
  %126 = load i64, ptr %125, align 8, !tbaa !45
  %127 = load ptr, ptr %5, align 8, !tbaa !20
  %128 = getelementptr inbounds nuw %struct.ossl_param_st, ptr %127, i32 0, i32 4
  %129 = load i64, ptr %128, align 8, !tbaa !29
  %130 = call i32 @test_size_t_gt(ptr noundef @.str.3, i32 noundef 194, ptr noundef @.str.19, ptr noundef @.str.20, i64 noundef %126, i64 noundef %129)
  %131 = icmp ne i32 %130, 0
  br i1 %131, label %133, label %132

132:                                              ; preds = %117
  store i32 0, ptr %3, align 4
  store i32 1, ptr %7, align 4
  br label %170

133:                                              ; preds = %117
  %134 = load ptr, ptr %5, align 8, !tbaa !20
  %135 = getelementptr inbounds nuw %struct.ossl_param_st, ptr %134, i32 0, i32 2
  %136 = load ptr, ptr %135, align 8, !tbaa !44
  %137 = load ptr, ptr %6, align 8, !tbaa !35
  %138 = getelementptr inbounds nuw %struct.object_st, ptr %137, i32 0, i32 5
  %139 = getelementptr inbounds [256 x i8], ptr %138, i64 0, i64 0
  %140 = call ptr @strcpy(ptr noundef %136, ptr noundef %139) #7
  br label %161

141:                                              ; preds = %111
  %142 = load ptr, ptr %5, align 8, !tbaa !20
  %143 = getelementptr inbounds nuw %struct.ossl_param_st, ptr %142, i32 0, i32 0
  %144 = load ptr, ptr %143, align 8, !tbaa !43
  %145 = call i32 @strcmp(ptr noundef %144, ptr noundef @.str.18) #8
  %146 = icmp eq i32 %145, 0
  br i1 %146, label %147, label %160

147:                                              ; preds = %141
  %148 = load ptr, ptr %6, align 8, !tbaa !35
  %149 = getelementptr inbounds nuw %struct.object_st, ptr %148, i32 0, i32 7
  %150 = load ptr, ptr %149, align 8, !tbaa !42
  %151 = call i64 @strlen(ptr noundef %150) #8
  %152 = load ptr, ptr %5, align 8, !tbaa !20
  %153 = getelementptr inbounds nuw %struct.ossl_param_st, ptr %152, i32 0, i32 4
  store i64 %151, ptr %153, align 8, !tbaa !29
  %154 = load ptr, ptr %6, align 8, !tbaa !35
  %155 = getelementptr inbounds nuw %struct.object_st, ptr %154, i32 0, i32 7
  %156 = load ptr, ptr %155, align 8, !tbaa !42
  %157 = load ptr, ptr %5, align 8, !tbaa !20
  %158 = getelementptr inbounds nuw %struct.ossl_param_st, ptr %157, i32 0, i32 2
  %159 = load ptr, ptr %158, align 8, !tbaa !44
  store ptr %156, ptr %159, align 8, !tbaa !32
  br label %160

160:                                              ; preds = %147, %141
  br label %161

161:                                              ; preds = %160, %133
  br label %162

162:                                              ; preds = %161, %103
  br label %163

163:                                              ; preds = %162, %69
  br label %164

164:                                              ; preds = %163, %35
  br label %165

165:                                              ; preds = %164, %20
  br label %166

166:                                              ; preds = %165
  %167 = load ptr, ptr %5, align 8, !tbaa !20
  %168 = getelementptr inbounds nuw %struct.ossl_param_st, ptr %167, i32 1
  store ptr %168, ptr %5, align 8, !tbaa !20
  br label %9, !llvm.loop !52

169:                                              ; preds = %9
  store i32 1, ptr %3, align 4
  store i32 1, ptr %7, align 4
  br label %170

170:                                              ; preds = %169, %132, %102, %68
  call void @llvm.lifetime.end.p0(i64 8, ptr %6) #7
  %171 = load i32, ptr %3, align 4
  ret i32 %171
}