; Function Attrs: nounwind uwtable
define internal range(i32 0, 2) i32 @raw_get_params(ptr noundef readonly captures(none) %0, ptr noundef captures(none) %1) #0 {
  %3 = getelementptr inbounds nuw i8, ptr %0, i64 40
  %4 = getelementptr inbounds nuw i8, ptr %0, i64 24
  %5 = getelementptr inbounds nuw i8, ptr %0, i64 16
  %6 = load ptr, ptr %1, align 8, !tbaa !43
  %.not68 = icmp eq ptr %6, null
  br i1 %.not68, label %._crit_edge, label %sub_0.lr.ph

sub_0.lr.ph:                                      ; preds = %2
  %7 = getelementptr inbounds nuw i8, ptr %0, i64 304
  %8 = getelementptr inbounds nuw i8, ptr %0, i64 8
  br label %sub_0

sub_0:                                            ; preds = %sub_0.lr.ph, %.tail63.thread
  %9 = phi ptr [ %6, %sub_0.lr.ph ], [ %97, %.tail63.thread ]
  %.03869 = phi ptr [ %1, %sub_0.lr.ph ], [ %96, %.tail63.thread ]
  %10 = load i8, ptr %9, align 1
  %.not76 = icmp eq i8 %10, 112
  br i1 %.not76, label %sub_1, label %.tail63.thread

sub_1:                                            ; preds = %sub_0
  %11 = getelementptr inbounds nuw i8, ptr %9, i64 1
  %12 = load i8, ptr %11, align 1
  %.not77 = icmp eq i8 %12, 49
  br i1 %.not77, label %.tail, label %sub_145

.tail:                                            ; preds = %sub_1
  %13 = getelementptr inbounds nuw i8, ptr %9, i64 2
  %14 = load i8, ptr %13, align 1
  %15 = icmp eq i8 %14, 0
  br i1 %15, label %16, label %sub_145

16:                                               ; preds = %.tail
  %17 = getelementptr inbounds nuw i8, ptr %.03869, i64 32
  store i64 4, ptr %17, align 8, !tbaa !41
  %18 = load i32, ptr %0, align 8, !tbaa !29
  %19 = getelementptr inbounds nuw i8, ptr %.03869, i64 16
  %20 = load ptr, ptr %19, align 8, !tbaa !23
  store i32 %18, ptr %20, align 4, !tbaa !36
  br label %.tail63.thread

sub_145:                                          ; preds = %.tail, %sub_1
  %21 = getelementptr inbounds nuw i8, ptr %9, i64 1
  %22 = load i8, ptr %21, align 1
  %.not79 = icmp eq i8 %22, 50
  br i1 %.not79, label %.tail43, label %sub_150

.tail43:                                          ; preds = %sub_145
  %23 = getelementptr inbounds nuw i8, ptr %9, i64 2
  %24 = load i8, ptr %23, align 1
  %25 = icmp eq i8 %24, 0
  br i1 %25, label %26, label %sub_150

26:                                               ; preds = %.tail43
  %27 = getelementptr inbounds nuw i8, ptr %.03869, i64 32
  store i64 8, ptr %27, align 8, !tbaa !41
  %28 = load double, ptr %8, align 8, !tbaa !32
  %29 = getelementptr inbounds nuw i8, ptr %.03869, i64 16
  %30 = load ptr, ptr %29, align 8, !tbaa !23
  store double %28, ptr %30, align 8, !tbaa !37
  br label %.tail63.thread

sub_150:                                          ; preds = %.tail43, %sub_145
  %31 = getelementptr inbounds nuw i8, ptr %9, i64 1
  %32 = load i8, ptr %31, align 1
  %.not81 = icmp eq i8 %32, 51
  br i1 %.not81, label %.tail48, label %sub_155

.tail48:                                          ; preds = %sub_150
  %33 = getelementptr inbounds nuw i8, ptr %9, i64 2
  %34 = load i8, ptr %33, align 1
  %35 = icmp eq i8 %34, 0
  br i1 %35, label %36, label %sub_155

36:                                               ; preds = %.tail48
  %37 = load ptr, ptr %5, align 8, !tbaa !35
  %38 = tail call i32 @BN_num_bits(ptr noundef %37) #7
  %39 = add nsw i32 %38, 7
  %40 = sdiv i32 %39, 8
  %41 = sext i32 %40 to i64
  %42 = getelementptr inbounds nuw i8, ptr %.03869, i64 32
  store i64 %41, ptr %42, align 8, !tbaa !41
  %43 = getelementptr inbounds nuw i8, ptr %.03869, i64 24
  %44 = load i64, ptr %43, align 8, !tbaa !20
  %45 = tail call i32 @test_size_t_ge(ptr noundef nonnull @.str.3, i32 noundef 184, ptr noundef nonnull @.str.19, ptr noundef nonnull @.str.20, i64 noundef %44, i64 noundef %41) #7
  %.not42 = icmp eq i32 %45, 0
  br i1 %.not42, label %._crit_edge, label %46

46:                                               ; preds = %36
  %47 = load ptr, ptr %5, align 8, !tbaa !35
  %48 = getelementptr inbounds nuw i8, ptr %.03869, i64 16
  %49 = load ptr, ptr %48, align 8, !tbaa !23
  %50 = load i64, ptr %42, align 8, !tbaa !41
  %51 = trunc i64 %50 to i32
  %52 = tail call i32 @BN_bn2nativepad(ptr noundef %47, ptr noundef %49, i32 noundef %51) #7
  br label %.tail63.thread

sub_155:                                          ; preds = %.tail48, %sub_150
  %53 = getelementptr inbounds nuw i8, ptr %9, i64 1
  %54 = load i8, ptr %53, align 1
  %.not83 = icmp eq i8 %54, 52
  br i1 %.not83, label %.tail53, label %sub_160

.tail53:                                          ; preds = %sub_155
  %55 = getelementptr inbounds nuw i8, ptr %9, i64 2
  %56 = load i8, ptr %55, align 1
  %57 = icmp eq i8 %56, 0
  br i1 %57, label %58, label %sub_160

58:                                               ; preds = %.tail53
  %59 = load ptr, ptr %4, align 8, !tbaa !33
  %60 = tail call i64 @strlen(ptr noundef nonnull dereferenceable(1) %59) #8
  %61 = getelementptr inbounds nuw i8, ptr %.03869, i64 32
  store i64 %60, ptr %61, align 8, !tbaa !41
  %62 = getelementptr inbounds nuw i8, ptr %.03869, i64 24
  %63 = load i64, ptr %62, align 8, !tbaa !20
  %64 = tail call i32 @test_size_t_gt(ptr noundef nonnull @.str.3, i32 noundef 189, ptr noundef nonnull @.str.19, ptr noundef nonnull @.str.20, i64 noundef %63, i64 noundef %60) #7
  %.not41 = icmp eq i32 %64, 0
  br i1 %.not41, label %._crit_edge, label %65

65:                                               ; preds = %58
  %66 = getelementptr inbounds nuw i8, ptr %.03869, i64 16
  %67 = load ptr, ptr %66, align 8, !tbaa !23
  %68 = load ptr, ptr %4, align 8, !tbaa !33
  %69 = tail call ptr @strcpy(ptr noundef nonnull dereferenceable(1) %67, ptr noundef nonnull dereferenceable(1) %68) #7
  br label %.tail63.thread

sub_160:                                          ; preds = %.tail53, %sub_155
  %70 = getelementptr inbounds nuw i8, ptr %9, i64 1
  %71 = load i8, ptr %70, align 1
  %.not85 = icmp eq i8 %71, 53
  br i1 %.not85, label %.tail58, label %sub_165

.tail58:                                          ; preds = %sub_160
  %72 = getelementptr inbounds nuw i8, ptr %9, i64 2
  %73 = load i8, ptr %72, align 1
  %74 = icmp eq i8 %73, 0
  br i1 %74, label %75, label %sub_165

75:                                               ; preds = %.tail58
  %76 = tail call i64 @strlen(ptr noundef nonnull dereferenceable(1) %3) #8
  %77 = getelementptr inbounds nuw i8, ptr %.03869, i64 32
  store i64 %76, ptr %77, align 8, !tbaa !41
  %78 = getelementptr inbounds nuw i8, ptr %.03869, i64 24
  %79 = load i64, ptr %78, align 8, !tbaa !20
  %80 = tail call i32 @test_size_t_gt(ptr noundef nonnull @.str.3, i32 noundef 194, ptr noundef nonnull @.str.19, ptr noundef nonnull @.str.20, i64 noundef %79, i64 noundef %76) #7
  %.not40 = icmp eq i32 %80, 0
  br i1 %.not40, label %._crit_edge, label %81

81:                                               ; preds = %75
  %82 = getelementptr inbounds nuw i8, ptr %.03869, i64 16
  %83 = load ptr, ptr %82, align 8, !tbaa !23
  %84 = tail call ptr @strcpy(ptr noundef nonnull dereferenceable(1) %83, ptr noundef nonnull dereferenceable(1) %3) #7
  br label %.tail63.thread

sub_165:                                          ; preds = %.tail58, %sub_160
  %85 = getelementptr inbounds nuw i8, ptr %9, i64 1
  %86 = load i8, ptr %85, align 1
  %.not87 = icmp eq i8 %86, 54
  br i1 %.not87, label %.tail63, label %.tail63.thread

.tail63:                                          ; preds = %sub_165
  %87 = getelementptr inbounds nuw i8, ptr %9, i64 2
  %88 = load i8, ptr %87, align 1
  %89 = icmp eq i8 %88, 0
  br i1 %89, label %90, label %.tail63.thread

90:                                               ; preds = %.tail63
  %91 = load ptr, ptr %7, align 8, !tbaa !34
  %92 = tail call i64 @strlen(ptr noundef nonnull dereferenceable(1) %91) #8
  %93 = getelementptr inbounds nuw i8, ptr %.03869, i64 32
  store i64 %92, ptr %93, align 8, !tbaa !41
  %94 = getelementptr inbounds nuw i8, ptr %.03869, i64 16
  %95 = load ptr, ptr %94, align 8, !tbaa !23
  store ptr %91, ptr %95, align 8, !tbaa !24
  br label %.tail63.thread

.tail63.thread:                                   ; preds = %sub_0, %sub_165, %16, %46, %81, %90, %.tail63, %65, %26
  %96 = getelementptr inbounds nuw i8, ptr %.03869, i64 40
  %97 = load ptr, ptr %96, align 8, !tbaa !43
  %.not = icmp eq ptr %97, null
  br i1 %.not, label %._crit_edge, label %sub_0, !llvm.loop !48

._crit_edge:                                      ; preds = %36, %58, %75, %.tail63.thread, %2
  %.0 = phi i32 [ 1, %2 ], [ 1, %.tail63.thread ], [ 0, %75 ], [ 0, %58 ], [ 0, %36 ]
  ret i32 %.0
}